target datalayout = "e-m:e-p270:32:32-p271:32:32-p272:64:64-i64:64-i128:128-f80:128-n8:16:32:64-S128"
target triple = "x86_64-pc-linux-gnu"

%struct.UBiDi = type { ptr, ptr, i32, i32, i32, i32, i32, i32, i32, i32, i32, ptr, ptr, ptr, ptr, ptr, ptr, i8, i8, ptr, ptr, i8, i32, i32, i8, i8, i8, ptr, i32, ptr, i32, ptr, i32, i32, i32, i32, i32, ptr, [10 x %struct.Para], i32, ptr, [1 x %struct.Run], i32, ptr, [5 x %struct.Isolate], %struct.InsertPoints, i32, ptr, ptr }
%struct.Para = type { i32, i32 }
%struct.Run = type { i32, i32, i32 }
%struct.Isolate = type { i32, i32, i32, i16 }
%struct.InsertPoints = type { i32, i32, i32, i32, ptr }

; Function Attrs: mustprogress uwtable
define i32 @ubidi_getCustomizedClass_77(ptr noundef %0, i32 noundef %1) #0 {
  %3 = alloca ptr, align 8
  %4 = alloca i32, align 4
  %5 = alloca i32, align 4
  store ptr %0, ptr %3, align 8, !tbaa !11
  store i32 %1, ptr %4, align 4, !tbaa !7
  call void @llvm.lifetime.start.p0(i64 4, ptr %5) #10
  %6 = load ptr, ptr %3, align 8, !tbaa !11
  %7 = getelementptr inbounds nuw %struct.UBiDi, ptr %6, i32 0, i32 47
  %8 = load ptr, ptr %7, align 8, !tbaa !149
  %9 = icmp eq ptr %8, null
  br i1 %9, label %20, label %10

10:                                               ; preds = %2
  %11 = load ptr, ptr %3, align 8, !tbaa !11
  %12 = getelementptr inbounds nuw %struct.UBiDi, ptr %11, i32 0, i32 47
  %13 = load ptr, ptr %12, align 8, !tbaa !149
  %14 = load ptr, ptr %3, align 8, !tbaa !11
  %15 = getelementptr inbounds nuw %struct.UBiDi, ptr %14, i32 0, i32 48
  %16 = load ptr, ptr %15, align 8, !tbaa !150
  %17 = load i32, ptr %4, align 4, !tbaa !7
  %18 = call noundef i32 %13(ptr noundef %16, i32 noundef %17)
  store i32 %18, ptr %5, align 4, !tbaa !50
  %19 = icmp eq i32 %18, 23
  br i1 %19, label %20, label %23

20:                                               ; preds = %10, %2
  %21 = load i32, ptr %4, align 4, !tbaa !7
  %22 = call i32 @ubidi_getClass_77(i32 noundef %21)
  store i32 %22, ptr %5, align 4, !tbaa !50
  br label %23

23:                                               ; preds = %20, %10
  %24 = load i32, ptr %5, align 4, !tbaa !50
  %25 = icmp sge i32 %24, 23
  br i1 %25, label %26, label %27

26:                                               ; preds = %23
  store i32 10, ptr %5, align 4, !tbaa !50
  br label %27

27:                                               ; preds = %26, %23
  %28 = load i32, ptr %5, align 4, !tbaa !50
  call void @llvm.lifetime.end.p0(i64 4, ptr %5) #10
  ret i32 %28
}