; Function Attrs: mustprogress uwtable
define i32 @ubidi_getCustomizedClass_77(ptr noundef readonly captures(none) %0, i32 noundef %1) local_unnamed_addr #0 {
  %3 = getelementptr inbounds nuw i8, ptr %0, i64 448
  %4 = load ptr, ptr %3, align 8, !tbaa !77
  %5 = icmp eq ptr %4, null
  br i1 %5, label %11, label %6

6:                                                ; preds = %2
  %7 = getelementptr inbounds nuw i8, ptr %0, i64 456
  %8 = load ptr, ptr %7, align 8, !tbaa !78
  %9 = tail call noundef i32 %4(ptr noundef %8, i32 noundef %1)
  %10 = icmp eq i32 %9, 23
  br i1 %10, label %11, label %13

11:                                               ; preds = %6, %2
  %12 = tail call i32 @ubidi_getClass_77(i32 noundef %1)
  br label %13

13:                                               ; preds = %11, %6
  %.0 = phi i32 [ %12, %11 ], [ %9, %6 ]
  %14 = icmp sgt i32 %.0, 22
  %spec.store.select = select i1 %14, i32 10, i32 %.0
  ret i32 %spec.store.select
}